(dp0
S'user'
p1
(dp2
Vusername
p3
Vdavid
p4
sVobjectId
p5
V1PiNpa6r9f
p6
sVsubscriptions
p7
(lp8
sVACL
p9
(dp10
V*
p11
(dp12
Vread
p13
I01
ssV1PiNpa6r9f
p14
(dp15
Vread
p16
I01
sVwrite
p17
I01
sssVsessionID
p18
VRg4o-f2MvmYDyK4rH4u5muHO_7D3nAlU
p19
sVupdatedAt
p20
V2016-04-07T05:09:06.385Z
p21
sVsessionToken
p22
Vr:68aeba0ec3758f880c3e06348a977ad6
p23
sVcreatedAt
p24
V2016-03-21T15:30:46.629Z
p25
sVdecks
p26
(lp27
Vdavid:6nassa0ak8
p28
aVdavid:1456030478931
p29
aVdavid:1458155292609
p30
aVdavid:1457806428532
p31
aVdavid:1
p32
ass.